target datalayout = "e-m:e-p270:32:32-p271:32:32-p272:64:64-i64:64-i128:128-f80:128-n8:16:32:64-S128"
target triple = "x86_64-unknown-linux-gnu"

%struct.ASN1_ITEM_st = type { i8, i64, ptr, i64, ptr, i64, ptr }
%struct.cbb_st = type { ptr, ptr, i64, i8, i8, i8 }

@X509_PUBKEY_it = hidden constant %struct.ASN1_ITEM_st { i8 1, i64 16, ptr @X509_PUBKEY_seq_tt, i64 2, ptr @X509_PUBKEY_aux, i64 24, ptr @.str }, align 8
@.str.1 = private unnamed_addr constant [126 x i8] c"generated/home/dtcxzyw/WorkSpace/Projects/compilers/llvm-opt-benchmark/bench/libquic/libquic/boringssl/crypto/x509/x_pubkey.c\00", align 1

; Function Attrs: nounwind uwtable
define hidden void @X509_PUBKEY_free(ptr noundef %a) #0 {
entry:
  %a.addr = alloca ptr, align 8
  store ptr %a, ptr %a.addr, align 8
  %0 = load ptr, ptr %a.addr, align 8
  call void @ASN1_item_free(ptr noundef %0, ptr noundef @X509_PUBKEY_it)
  ret void
}

; Function Attrs: nounwind uwtable
define hidden ptr @d2i_X509_PUBKEY(ptr noundef %a, ptr noundef %in, i64 noundef %len) #0 {
entry:
  %a.addr = alloca ptr, align 8
  %in.addr = alloca ptr, align 8
  %len.addr = alloca i64, align 8
  store ptr %a, ptr %a.addr, align 8
  store ptr %in, ptr %in.addr, align 8
  store i64 %len, ptr %len.addr, align 8
  %0 = load ptr, ptr %a.addr, align 8
  %1 = load ptr, ptr %in.addr, align 8
  %2 = load i64, ptr %len.addr, align 8
  %call = call ptr @ASN1_item_d2i(ptr noundef %0, ptr noundef %1, i64 noundef %2, ptr noundef @X509_PUBKEY_it)
  ret ptr %call
}

; Function Attrs: nounwind uwtable
define hidden i32 @X509_PUBKEY_set(ptr noundef %x, ptr noundef %pkey) #0 {
entry:
  %retval = alloca i32, align 4
  %x.addr = alloca ptr, align 8
  %pkey.addr = alloca ptr, align 8
  %pk = alloca ptr, align 8
  %spki = alloca ptr, align 8
  %spki_len = alloca i64, align 8
  %cbb = alloca %struct.cbb_st, align 8
  %p = alloca ptr, align 8
  store ptr %x, ptr %x.addr, align 8
  store ptr %pkey, ptr %pkey.addr, align 8
  store ptr null, ptr %pk, align 8
  store ptr null, ptr %spki, align 8
  %0 = load ptr, ptr %x.addr, align 8
  %cmp = icmp eq ptr %0, null
  br i1 %cmp, label %if.then, label %if.end

if.then:                                          ; preds = %entry
  store i32 0, ptr %retval, align 4
  br label %return

if.end:                                           ; preds = %entry
  %call = call i32 @CBB_init(ptr noundef %cbb, i64 noundef 0)
  %tobool = icmp ne i32 %call, 0
  br i1 %tobool, label %lor.lhs.false, label %if.then8

lor.lhs.false:                                    ; preds = %if.end
  %1 = load ptr, ptr %pkey.addr, align 8
  %call1 = call i32 @EVP_marshal_public_key(ptr noundef %cbb, ptr noundef %1)
  %tobool2 = icmp ne i32 %call1, 0
  br i1 %tobool2, label %lor.lhs.false3, label %if.then8

lor.lhs.false3:                                   ; preds = %lor.lhs.false
  %call4 = call i32 @CBB_finish(ptr noundef %cbb, ptr noundef %spki, ptr noundef %spki_len)
  %tobool5 = icmp ne i32 %call4, 0
  br i1 %tobool5, label %lor.lhs.false6, label %if.then8

lor.lhs.false6:                                   ; preds = %lor.lhs.false3
  %2 = load i64, ptr %spki_len, align 8
  %cmp7 = icmp ugt i64 %2, 9223372036854775807
  br i1 %cmp7, label %if.then8, label %if.end9

if.then8:                                         ; preds = %lor.lhs.false6, %lor.lhs.false3, %lor.lhs.false, %if.end
  call void @CBB_cleanup(ptr noundef %cbb)
  call void @ERR_put_error(i32 noundef 11, i32 noundef 0, i32 noundef 126, ptr noundef @.str.1, i32 noundef 105)
  br label %error

if.end9:                                          ; preds = %lor.lhs.false6
  %3 = load ptr, ptr %spki, align 8
  store ptr %3, ptr %p, align 8
  %4 = load i64, ptr %spki_len, align 8
  %call10 = call ptr @d2i_X509_PUBKEY(ptr noundef null, ptr noundef %p, i64 noundef %4)
  store ptr %call10, ptr %pk, align 8
  %5 = load ptr, ptr %pk, align 8
  %cmp11 = icmp eq ptr %5, null
  br i1 %cmp11, label %if.then14, label %lor.lhs.false12

lor.lhs.false12:                                  ; preds = %if.end9
  %6 = load ptr, ptr %p, align 8
  %7 = load ptr, ptr %spki, align 8
  %8 = load i64, ptr %spki_len, align 8
  %add.ptr = getelementptr inbounds i8, ptr %7, i64 %8
  %cmp13 = icmp ne ptr %6, %add.ptr
  br i1 %cmp13, label %if.then14, label %if.end15

if.then14:                                        ; preds = %lor.lhs.false12, %if.end9
  call void @ERR_put_error(i32 noundef 11, i32 noundef 0, i32 noundef 125, ptr noundef @.str.1, i32 noundef 112)
  br label %error

if.end15:                                         ; preds = %lor.lhs.false12
  %9 = load ptr, ptr %spki, align 8
  call void @free(ptr noundef %9) #3
  %10 = load ptr, ptr %x.addr, align 8
  %11 = load ptr, ptr %10, align 8
  call void @X509_PUBKEY_free(ptr noundef %11)
  %12 = load ptr, ptr %pk, align 8
  %13 = load ptr, ptr %x.addr, align 8
  store ptr %12, ptr %13, align 8
  store i32 1, ptr %retval, align 4
  br label %return

error:                                            ; preds = %if.then14, %if.then8
  %14 = load ptr, ptr %pk, align 8
  call void @X509_PUBKEY_free(ptr noundef %14)
  %15 = load ptr, ptr %spki, align 8
  call void @free(ptr noundef %15) #3
  store i32 0, ptr %retval, align 4
  br label %return

return:                                           ; preds = %error, %if.end15, %if.then
  %16 = load i32, ptr %retval, align 4
  ret i32 %16
}