; Function Attrs: nounwind uwtable
define hidden range(i32 0, 2) i32 @X509_PUBKEY_set(ptr noundef %x, ptr noundef %pkey) local_unnamed_addr #0 {
entry:
  %spki = alloca ptr, align 8
  %spki_len = alloca i64, align 8
  %cbb = alloca %struct.cbb_st, align 8
  %p = alloca ptr, align 8
  store ptr null, ptr %spki, align 8
  %cmp = icmp eq ptr %x, null
  br i1 %cmp, label %return, label %if.end

if.end:                                           ; preds = %entry
  %call = call i32 @CBB_init(ptr noundef nonnull %cbb, i64 noundef 0) #5
  %tobool.not = icmp eq i32 %call, 0
  br i1 %tobool.not, label %if.then8, label %lor.lhs.false

lor.lhs.false:                                    ; preds = %if.end
  %call1 = call i32 @EVP_marshal_public_key(ptr noundef nonnull %cbb, ptr noundef %pkey) #5
  %tobool2.not = icmp eq i32 %call1, 0
  br i1 %tobool2.not, label %if.then8, label %lor.lhs.false3

lor.lhs.false3:                                   ; preds = %lor.lhs.false
  %call4 = call i32 @CBB_finish(ptr noundef nonnull %cbb, ptr noundef nonnull %spki, ptr noundef nonnull %spki_len) #5
  %tobool5 = icmp eq i32 %call4, 0
  %0 = load i64, ptr %spki_len, align 8
  %cmp7 = icmp slt i64 %0, 0
  %or.cond = select i1 %tobool5, i1 true, i1 %cmp7
  br i1 %or.cond, label %if.then8, label %if.end9

if.then8:                                         ; preds = %lor.lhs.false3, %lor.lhs.false, %if.end
  call void @CBB_cleanup(ptr noundef nonnull %cbb) #5
  call void @ERR_put_error(i32 noundef 11, i32 noundef 0, i32 noundef 126, ptr noundef nonnull @.str.1, i32 noundef 105) #5
  br label %error

if.end9:                                          ; preds = %lor.lhs.false3
  %1 = load ptr, ptr %spki, align 8
  store ptr %1, ptr %p, align 8
  %call.i = call ptr @ASN1_item_d2i(ptr noundef null, ptr noundef nonnull %p, i64 noundef %0, ptr noundef nonnull @X509_PUBKEY_it) #5
  %cmp11 = icmp eq ptr %call.i, null
  br i1 %cmp11, label %if.then14, label %lor.lhs.false12

lor.lhs.false12:                                  ; preds = %if.end9
  %2 = load ptr, ptr %p, align 8
  %3 = load ptr, ptr %spki, align 8
  %4 = load i64, ptr %spki_len, align 8
  %add.ptr = getelementptr inbounds i8, ptr %3, i64 %4
  %cmp13.not = icmp eq ptr %2, %add.ptr
  br i1 %cmp13.not, label %if.end15, label %if.then14

if.then14:                                        ; preds = %lor.lhs.false12, %if.end9
  call void @ERR_put_error(i32 noundef 11, i32 noundef 0, i32 noundef 125, ptr noundef nonnull @.str.1, i32 noundef 112) #5
  br label %error

if.end15:                                         ; preds = %lor.lhs.false12
  call void @free(ptr noundef %3) #5
  %5 = load ptr, ptr %x, align 8
  call void @ASN1_item_free(ptr noundef %5, ptr noundef nonnull @X509_PUBKEY_it) #5
  store ptr %call.i, ptr %x, align 8
  br label %return

error:                                            ; preds = %if.then14, %if.then8
  %pk.0 = phi ptr [ null, %if.then8 ], [ %call.i, %if.then14 ]
  call void @ASN1_item_free(ptr noundef %pk.0, ptr noundef nonnull @X509_PUBKEY_it) #5
  %6 = load ptr, ptr %spki, align 8
  call void @free(ptr noundef %6) #5
  br label %return

return:                                           ; preds = %entry, %error, %if.end15
  %retval.0 = phi i32 [ 0, %error ], [ 1, %if.end15 ], [ 0, %entry ]
  ret i32 %retval.0
}